Certificate:
    Data:
        Version: 3 (0x2)
        Serial Number: 10623960486695269609 (0x936fe3c64541f4e9)
    Signature Algorithm: sha256WithRSAEncryption
        Issuer: C=US, ST=Utah, O=Control4, CN=C4
        Validity
            Not Before: Nov 12 21:11:29 2017 GMT
            Not After : Nov 11 21:11:29 2020 GMT
        Subject: C=US, ST=Utah, O=Control4, CN=C4
        Subject Public Key Info:
            Public Key Algorithm: rsaEncryption
                Public-Key: (2048 bit)
                Modulus:
                    00:c4:cb:7e:95:43:8c:d5:59:06:b7:dc:89:01:4b:
                    9b:09:99:72:c7:87:72:84:64:81:39:a5:49:f7:80:
                    c5:eb:47:24:01:14:0b:55:2a:32:ea:63:5d:e4:d3:
                    31:5d:8d:8d:ff:c0:89:c7:89:28:c8:a3:8b:6f:d7:
                    6a:1b:7b:9e:07:14:ef:9c:50:79:5e:0d:5c:45:4f:
                    de:39:72:a4:c8:da:c8:f8:a5:8c:46:5f:8b:28:ab:
                    5c:ee:06:cf:f0:50:dd:97:d2:5d:96:dd:18:e2:01:
                    2c:7c:ad:e2:30:3f:01:da:08:13:1b:d2:1c:99:11:
                    8f:6b:20:21:3d:6d:e0:2b:2a:ce:39:12:b1:e3:dd:
                    46:72:fb:fe:24:ef:5f:f3:f4:98:c0:7a:46:cd:4e:
                    47:f9:3a:b3:e4:d9:a7:4e:45:79:79:91:12:3e:cf:
                    84:43:0d:75:71:dd:99:0c:b4:d2:48:57:48:04:13:
                    94:20:ca:99:06:67:cc:b5:86:a1:ad:9a:0b:af:88:
                    ca:ff:ea:8b:84:df:78:94:0f:d0:01:f9:96:4a:76:
                    37:4a:6f:93:0f:52:ff:96:69:05:f0:f0:50:b1:83:
                    00:71:d5:db:c2:d8:0e:2c:15:8f:93:1b:ed:29:26:
                    e8:d0:5c:c4:fe:c2:c5:08:15:22:a6:a4:30:a6:3e:
                    91:fd
                Exponent: 65537 (0x10001)
        X509v3 extensions:
            X509v3 Subject Key Identifier: 
                88:8F:0F:26:97:38:9F:F2:77:43:60:85:2D:35:FF:B3:9C:3D:98:75
            X509v3 Authority Key Identifier: 
                keyid:88:8F:0F:26:97:38:9F:F2:77:43:60:85:2D:35:FF:B3:9C:3D:98:75

            X509v3 Basic Constraints: 
                CA:TRUE
    Signature Algorithm: sha256WithRSAEncryption
         77:f2:57:5a:a9:82:d0:c8:44:7d:d5:6b:c4:13:02:86:11:cd:
         89:fa:14:90:66:ce:8c:d5:ed:22:51:b4:74:eb:6d:06:39:22:
         c4:c9:40:91:ff:fb:3e:b3:94:da:40:d6:3c:56:c8:95:19:8f:
         6c:87:72:8f:d1:b3:3a:c5:30:7a:ac:0d:92:e8:70:0d:e8:2d:
         b7:87:9f:0c:15:12:51:d9:52:4f:e2:1d:c9:c8:28:5c:fc:f1:
         ed:80:76:ea:c2:dd:10:87:f3:5a:a8:73:f3:b6:53:05:04:20:
         f1:7e:21:27:a1:b3:5f:16:ef:b5:7e:e6:01:0b:a3:b0:b7:9b:
         09:73:9c:5f:e3:84:6d:0b:28:5f:98:cd:28:d3:5c:81:0e:a4:
         9e:1a:cd:81:40:e8:7c:1f:b6:76:83:d8:74:74:f1:01:a8:cb:
         01:e5:b1:db:5a:20:1f:8c:56:2e:80:20:82:3a:15:37:ff:c7:
         90:8a:db:3b:7f:f7:5a:6e:13:e5:78:71:88:d6:f9:9b:d2:35:
         2c:81:a1:bf:f2:9c:f0:70:50:67:b2:82:4e:1d:96:cf:0e:19:
         71:80:75:f9:c4:6f:31:5d:d7:53:0b:6d:11:ad:87:15:53:3a:
         92:00:f7:8f:27:8e:26:4d:2f:9c:de:5d:59:73:11:d9:43:f7:
         32:e9:fb:b5
-----BEGIN CERTIFICATE-----
MIIDSzCCAjOgAwIBAgIJAJNv48ZFQfTpMA0GCSqGSIb3DQEBCwUAMDwxCzAJBgNV
BAYTAlVTMQ0wCwYDVQQIDARVdGFoMREwDwYDVQQKDAhDb250cm9sNDELMAkGA1UE
AwwCQzQwHhcNMTcxMTEyMjExMTI5WhcNMjAxMTExMjExMTI5WjA8MQswCQYDVQQG
EwJVUzENMAsGA1UECAwEVXRhaDERMA8GA1UECgwIQ29udHJvbDQxCzAJBgNVBAMM
AkM0MIIBIjANBgkqhkiG9w0BAQEFAAOCAQ8AMIIBCgKCAQEAxMt+lUOM1VkGt9yJ
AUubCZlyx4dyhGSBOaVJ94DF60ckARQLVSoy6mNd5NMxXY2N/8CJx4koyKOLb9dq
G3ueBxTvnFB5Xg1cRU/eOXKkyNrI+KWMRl+LKKtc7gbP8FDdl9Jdlt0Y4gEsfK3i
MD8B2ggTG9IcmRGPayAhPW3gKyrOORKx491Gcvv+JO9f8/SYwHpGzU5H+Tqz5Nmn
TkV5eZESPs+EQw11cd2ZDLTSSFdIBBOUIMqZBmfMtYahrZoLr4jK/+qLhN94lA/Q
AfmWSnY3Sm+TD1L/lmkF8PBQsYMAcdXbwtgOLBWPkxvtKSbo0FzE/sLFCBUipqQw
pj6R/QIDAQABo1AwTjAdBgNVHQ4EFgQUiI8PJpc4n/J3Q2CFLTX/s5w9mHUwHwYD
VR0jBBgwFoAUiI8PJpc4n/J3Q2CFLTX/s5w9mHUwDAYDVR0TBAUwAwEB/zANBgkq
hkiG9w0BAQsFAAOCAQEAd/JXWqmC0MhEfdVrxBMChhHNifoUkGbOjNXtIlG0dOtt
BjkixMlAkf/7PrOU2kDWPFbIlRmPbIdyj9GzOsUweqwNkuhwDegtt4efDBUSUdlS
T+IdycgoXPzx7YB26sLdEIfzWqhz87ZTBQQg8X4hJ6GzXxbvtX7mAQujsLebCXOc
X+OEbQsoX5jNKNNcgQ6knhrNgUDofB+2doPYdHTxAajLAeWx21ogH4xWLoAggjoV
N//HkIrbO3/3Wm4T5XhxiNb5m9I1LIGhv/Kc8HBQZ7KCTh2Wzw4ZcYB1+cRvMV3X
UwttEa2HFVM6kgD3jyeOJk0vnN5dWXMR2UP3Mun7tQ==
-----END CERTIFICATE-----
